; Function Attrs: nounwind uwtable
define internal range(i32 -1, 2) i32 @H5F__cache_superblock_verify_chksum(ptr noundef %0, i64 noundef %1, ptr noundef readonly captures(none) %2) #1 {
  %4 = alloca i32, align 4
  %5 = alloca i32, align 4
  call void @llvm.lifetime.start.p0(i64 4, ptr nonnull %4) #6
  call void @llvm.lifetime.start.p0(i64 4, ptr nonnull %5) #6
  %6 = load i8, ptr @H5F_init_g, align 1, !tbaa !3, !range !7, !noundef !8
  %7 = trunc nuw i8 %6 to i1
  %8 = load i8, ptr @H5_libterm_g, align 1, !range !7
  %9 = trunc nuw i8 %8 to i1
  %10 = xor i1 %9, true
  %11 = select i1 %7, i1 true, i1 %10
  br i1 %11, label %12, label %26, !prof !9

12:                                               ; preds = %3
  %13 = getelementptr inbounds nuw i8, ptr %2, i64 36
  %14 = load i32, ptr %13, align 4, !tbaa !26
  %15 = icmp ugt i32 %14, 1
  br i1 %15, label %16, label %26

16:                                               ; preds = %12
  %17 = call i32 @H5F_get_checksums(ptr noundef %0, i64 noundef %1, ptr noundef nonnull %4, ptr noundef nonnull %5) #6
  %18 = icmp slt i32 %17, 0
  br i1 %18, label %19, label %23

19:                                               ; preds = %16
  %20 = load i64, ptr @H5E_FILE_g, align 8, !tbaa !10
  %21 = load i64, ptr @H5E_CANTGET_g, align 8, !tbaa !10
  %22 = call i32 (ptr, ptr, i32, i64, i64, ptr, ...) @H5E_printf_stack(ptr noundef nonnull @.str.2, ptr noundef nonnull @__func__.H5F__cache_superblock_verify_chksum, i32 noundef 383, i64 noundef %20, i64 noundef %21, ptr noundef nonnull @.str.11) #6
  br label %26

23:                                               ; preds = %16
  %24 = load i32, ptr %4, align 4, !tbaa !30
  %25 = load i32, ptr %5, align 4, !tbaa !30
  %.not = icmp eq i32 %24, %25
  %spec.select = zext i1 %.not to i32
  br label %26

26:                                               ; preds = %23, %19, %12, %3
  %.0 = phi i32 [ -1, %19 ], [ 1, %12 ], [ 1, %3 ], [ %spec.select, %23 ]
  call void @llvm.lifetime.end.p0(i64 4, ptr nonnull %5) #6
  call void @llvm.lifetime.end.p0(i64 4, ptr nonnull %4) #6
  ret i32 %.0
}